; Function Attrs: mustprogress uwtable
define void @_ZN6icu_7519CollationRuleParser13setParseErrorEPKcR10UErrorCode(ptr nocapture noundef nonnull align 8 dereferenceable(76) %this, ptr noundef %reason, ptr nocapture noundef nonnull align 4 dereferenceable(4) %errorCode) local_unnamed_addr #1 align 2 {
entry:
  %0 = load i32, ptr %errorCode, align 4
  %cmp.i = icmp slt i32 %0, 1
  br i1 %cmp.i, label %if.end, label %if.end3

if.end:                                           ; preds = %entry
  store i32 3, ptr %errorCode, align 4
  %errorReason = getelementptr inbounds i8, ptr %this, i64 48
  store ptr %reason, ptr %errorReason, align 8
  %parseError = getelementptr inbounds i8, ptr %this, i64 40
  %1 = load ptr, ptr %parseError, align 8
  %cmp.not = icmp eq ptr %1, null
  br i1 %cmp.not, label %if.end3, label %if.then2

if.then2:                                         ; preds = %if.end
  tail call void @_ZN6icu_7519CollationRuleParser15setErrorContextEv(ptr noundef nonnull align 8 dereferenceable(76) %this)
  br label %if.end3

if.end3:                                          ; preds = %entry, %if.then2, %if.end
  ret void
}